; ModuleID = '33/2977.c'
source_filename = "33/2977.c"
target datalayout = "e-m:e-p270:32:32-p271:32:32-p272:64:64-i64:64-f80:128-n8:16:32:64-S128"
target triple = "x86_64-pc-linux-gnu"

@.str = private unnamed_addr constant [3 x i8] c"%s\00", align 1
@.str.1 = private unnamed_addr constant [4 x i8] c"%s\0A\00", align 1

; Function Attrs: noinline nounwind uwtable
define dso_local i32 @main() #0 {
  %1 = alloca i32, align 4
  %2 = alloca [3 x i8], align 1
  %3 = alloca i32, align 4
  %4 = alloca i32, align 4
  %5 = alloca [256 x i8], align 16
  %6 = alloca [256 x i8], align 16
  %7 = alloca i8*, align 8
  %8 = alloca i8*, align 8
  store i32 0, i32* %1, align 4
  %9 = getelementptr inbounds [3 x i8], [3 x i8]* %2, i64 0, i64 0
  %10 = call i32 (i8*, ...) bitcast (i32 (...)* @gets to i32 (i8*, ...)*)(i8* %9)
  %11 = getelementptr inbounds [3 x i8], [3 x i8]* %2, i64 0, i64 0
  %12 = call i32 @atoi(i8* %11) #3
  store i32 %12, i32* %3, align 4
  store i32 0, i32* %4, align 4
  br label %13

13:                                               ; preds = %66, %0
  %14 = load i32, i32* %4, align 4
  %15 = load i32, i32* %3, align 4
  %16 = icmp slt i32 %14, %15
  br i1 %16, label %17, label %69

17:                                               ; preds = %13
  %18 = getelementptr inbounds [256 x i8], [256 x i8]* %5, i64 0, i64 0
  %19 = call i32 (i8*, ...) @__isoc99_scanf(i8* getelementptr inbounds ([3 x i8], [3 x i8]* @.str, i64 0, i64 0), i8* %18)
  %20 = getelementptr inbounds [256 x i8], [256 x i8]* %5, i64 0, i64 0
  store i8* %20, i8** %7, align 8
  %21 = getelementptr inbounds [256 x i8], [256 x i8]* %6, i64 0, i64 0
  store i8* %21, i8** %8, align 8
  br label %22

22:                                               ; preds = %56, %17
  %23 = load i8*, i8** %7, align 8
  %24 = load i8, i8* %23, align 1
  %25 = sext i8 %24 to i32
  %26 = icmp ne i32 %25, 0
  br i1 %26, label %27, label %61

27:                                               ; preds = %22
  %28 = load i8*, i8** %7, align 8
  %29 = load i8, i8* %28, align 1
  %30 = sext i8 %29 to i32
  %31 = icmp eq i32 %30, 65
  br i1 %31, label %32, label %34

32:                                               ; preds = %27
  %33 = load i8*, i8** %8, align 8
  store i8 84, i8* %33, align 1
  br label %34

34:                                               ; preds = %32, %27
  %35 = load i8*, i8** %7, align 8
  %36 = load i8, i8* %35, align 1
  %37 = sext i8 %36 to i32
  %38 = icmp eq i32 %37, 84
  br i1 %38, label %39, label %41

39:                                               ; preds = %34
  %40 = load i8*, i8** %8, align 8
  store i8 65, i8* %40, align 1
  br label %41

41:                                               ; preds = %39, %34
  %42 = load i8*, i8** %7, align 8
  %43 = load i8, i8* %42, align 1
  %44 = sext i8 %43 to i32
  %45 = icmp eq i32 %44, 67
  br i1 %45, label %46, label %48

46:                                               ; preds = %41
  %47 = load i8*, i8** %8, align 8
  store i8 71, i8* %47, align 1
  br label %48

48:                                               ; preds = %46, %41
  %49 = load i8*, i8** %7, align 8
  %50 = load i8, i8* %49, align 1
  %51 = sext i8 %50 to i32
  %52 = icmp eq i32 %51, 71
  br i1 %52, label %53, label %55

53:                                               ; preds = %48
  %54 = load i8*, i8** %8, align 8
  store i8 67, i8* %54, align 1
  br label %55

55:                                               ; preds = %53, %48
  br label %56

56:                                               ; preds = %55
  %57 = load i8*, i8** %7, align 8
  %58 = getelementptr inbounds i8, i8* %57, i32 1
  store i8* %58, i8** %7, align 8
  %59 = load i8*, i8** %8, align 8
  %60 = getelementptr inbounds i8, i8* %59, i32 1
  store i8* %60, i8** %8, align 8
  br label %22

61:                                               ; preds = %22
  %62 = load i8*, i8** %8, align 8
  store i8 0, i8* %62, align 1
  %63 = getelementptr inbounds [256 x i8], [256 x i8]* %6, i64 0, i64 0
  store i8* %63, i8** %8, align 8
  %64 = load i8*, i8** %8, align 8
  %65 = call i32 (i8*, ...) @printf(i8* getelementptr inbounds ([4 x i8], [4 x i8]* @.str.1, i64 0, i64 0), i8* %64)
  br label %66

66:                                               ; preds = %61
  %67 = load i32, i32* %4, align 4
  %68 = add nsw i32 %67, 1
  store i32 %68, i32* %4, align 4
  br label %13

69:                                               ; preds = %13
  ret i32 0
}

declare dso_local i32 @gets(...) #1

; Function Attrs: nounwind readonly
declare dso_local i32 @atoi(i8*) #2

declare dso_local i32 @__isoc99_scanf(i8*, ...) #1

declare dso_local i32 @printf(i8*, ...) #1


!llvm.module.flags = !{!0}
!llvm.ident = !{!1}

!0 = !{i32 1, !"wchar_size", i32 4}
!1 = !{!"clang version 10.0.0-4ubuntu1 "}
